; Function Attrs: mustprogress nounwind uwtable
define noundef range(i64 0, 2) i64 @_ZNK5boost4json6object5countENS_4core17basic_string_viewIcEE(ptr noundef nonnull align 8 dereferenceable(24) %0, ptr %1, i64 %2) local_unnamed_addr #7 align 2 {
  %4 = getelementptr inbounds nuw i8, ptr %0, i64 16
  %5 = load ptr, ptr %4, align 8, !tbaa !102
  %6 = load i32, ptr %5, align 8, !tbaa !106
  %7 = icmp eq i32 %6, 0
  br i1 %7, label %8, label %10

8:                                                ; preds = %3
  %9 = getelementptr inbounds i8, ptr %5, i64 16
  br label %_ZNK5boost4json6object4findENS_4core17basic_string_viewIcEE.exit

10:                                               ; preds = %3
  %11 = tail call { ptr, i64 } @_ZN5boost4json6detail14find_in_objectINS_4core17basic_string_viewIcEEEESt4pairIPNS0_14key_value_pairEmERKNS0_6objectET_(ptr noundef nonnull align 8 dereferenceable(24) %0, ptr %1, i64 %2) #48
  %12 = extractvalue { ptr, i64 } %11, 0
  %.not.i = icmp eq ptr %12, null
  %.pre = load ptr, ptr %4, align 8, !tbaa !102
  %13 = load i32, ptr %.pre, align 8, !tbaa !106
  br i1 %.not.i, label %14, label %_ZNK5boost4json6object4findENS_4core17basic_string_viewIcEE.exit

14:                                               ; preds = %10
  %15 = zext i32 %13 to i64
  %16 = getelementptr inbounds i8, ptr %.pre, i64 16
  %17 = getelementptr inbounds nuw %"class.boost::json::key_value_pair", ptr %16, i64 %15
  br label %_ZNK5boost4json6object4findENS_4core17basic_string_viewIcEE.exit

_ZNK5boost4json6object4findENS_4core17basic_string_viewIcEE.exit: ; preds = %10, %8, %14
  %18 = phi i32 [ 0, %8 ], [ %13, %14 ], [ %13, %10 ]
  %19 = phi ptr [ %5, %8 ], [ %.pre, %14 ], [ %.pre, %10 ]
  %.0.i = phi ptr [ %9, %8 ], [ %17, %14 ], [ %12, %10 ]
  %20 = zext i32 %18 to i64
  %21 = getelementptr inbounds i8, ptr %19, i64 16
  %22 = getelementptr inbounds nuw %"class.boost::json::key_value_pair", ptr %21, i64 %20
  %23 = icmp ne ptr %.0.i, %22
  %. = zext i1 %23 to i64
  ret i64 %.
}